target datalayout = "e-m:e-p270:32:32-p271:32:32-p272:64:64-i64:64-i128:128-f80:128-n8:16:32:64-S128"
target triple = "x86_64-pc-linux-gnu"

%struct.H5O_msg_class_t = type { i32, ptr, i64, i32, ptr, ptr, ptr, ptr, ptr, ptr, ptr, ptr, ptr, ptr, ptr, ptr, ptr, ptr, ptr, ptr }

@H5O_init_g = external global i8, align 1
@H5_libterm_g = external global i8, align 1
@.str = private unnamed_addr constant [104 x i8] c"generated/home/dtcxzyw/WorkSpace/Projects/compilers/llvm-opt-benchmark/bench/hdf5/hdf5/src/H5Omessage.c\00", align 1
@H5E_FUNC_g = external global i64, align 8
@H5E_CANTINIT_g = external global i64, align 8
@.str.1 = private unnamed_addr constant [32 x i8] c"interface initialization failed\00", align 1
@H5E_OHDR_g = external global i64, align 8
@H5O_msg_class_g = external constant [26 x ptr], align 16
@__func__.H5O_msg_copy = private unnamed_addr constant [13 x i8] c"H5O_msg_copy\00", align 1
@.str.21 = private unnamed_addr constant [37 x i8] c"unable to copy object header message\00", align 1

; Function Attrs: nounwind uwtable
define ptr @H5O_msg_copy(i32 noundef %0, ptr noundef %1, ptr noundef %2) #0 {
  %4 = alloca i32, align 4
  %5 = alloca ptr, align 8
  %6 = alloca ptr, align 8
  %7 = alloca ptr, align 8
  %8 = alloca ptr, align 8
  %9 = alloca i8, align 1
  store i32 %0, ptr %4, align 4, !tbaa !8
  store ptr %1, ptr %5, align 8, !tbaa !10
  store ptr %2, ptr %6, align 8, !tbaa !10
  call void @llvm.lifetime.start.p0(i64 8, ptr %7) #5
  call void @llvm.lifetime.start.p0(i64 8, ptr %8) #5
  store ptr null, ptr %8, align 8, !tbaa !10
  call void @llvm.lifetime.start.p0(i64 1, ptr %9) #5
  store i8 0, ptr %9, align 1, !tbaa !13
  %10 = load i8, ptr @H5O_init_g, align 1, !tbaa !13, !range !15, !noundef !16
  %11 = trunc i8 %10 to i1
  br i1 %11, label %16, label %12

12:                                               ; preds = %3
  %13 = load i8, ptr @H5_libterm_g, align 1, !tbaa !13, !range !15, !noundef !16
  %14 = trunc i8 %13 to i1
  %15 = xor i1 %14, true
  br label %16

16:                                               ; preds = %12, %3
  %17 = phi i1 [ false, %3 ], [ %15, %12 ]
  %18 = xor i1 %17, true
  %19 = xor i1 %18, true
  %20 = zext i1 %19 to i32
  %21 = sext i32 %20 to i64
  %22 = call i64 @llvm.expect.i64(i64 %21, i64 0)
  %23 = icmp ne i64 %22, 0
  br i1 %23, label %24, label %47

24:                                               ; preds = %16
  store i8 1, ptr @H5O_init_g, align 1, !tbaa !13
  %25 = call i32 @H5O__init_package()
  %26 = icmp slt i32 %25, 0
  br i1 %26, label %27, label %46

27:                                               ; preds = %24
  store i8 0, ptr @H5O_init_g, align 1, !tbaa !13
  br label %28

28:                                               ; preds = %27
  br label %29

29:                                               ; preds = %28
  br label %30

30:                                               ; preds = %29
  %31 = load i64, ptr @H5E_FUNC_g, align 8, !tbaa !17
  %32 = load i64, ptr @H5E_CANTINIT_g, align 8, !tbaa !17
  %33 = call i32 (ptr, ptr, i32, i64, i64, ptr, ...) @H5E_printf_stack(ptr noundef @.str, ptr noundef @__func__.H5O_msg_copy, i32 noundef 666, i64 noundef %31, i64 noundef %32, ptr noundef @.str.1)
  br label %34

34:                                               ; preds = %30
  br label %35

35:                                               ; preds = %34
  store i8 1, ptr %9, align 1, !tbaa !13
  %36 = load i8, ptr %9, align 1, !tbaa !13, !range !15, !noundef !16
  %37 = trunc i8 %36 to i1
  %38 = zext i1 %37 to i8
  store i8 %38, ptr %9, align 1, !tbaa !13
  br label %39

39:                                               ; preds = %35
  br label %40

40:                                               ; preds = %39
  br label %41

41:                                               ; preds = %40
  store ptr null, ptr %8, align 8, !tbaa !10
  br label %94

42:                                               ; No predecessors!
  br label %43

43:                                               ; preds = %42
  br label %44

44:                                               ; preds = %43
  br label %45

45:                                               ; preds = %44
  br label %46

46:                                               ; preds = %45, %24
  br label %47

47:                                               ; preds = %46, %16
  %48 = load i8, ptr @H5O_init_g, align 1, !tbaa !13, !range !15, !noundef !16
  %49 = trunc i8 %48 to i1
  br i1 %49, label %54, label %50

50:                                               ; preds = %47
  %51 = load i8, ptr @H5_libterm_g, align 1, !tbaa !13, !range !15, !noundef !16
  %52 = trunc i8 %51 to i1
  %53 = xor i1 %52, true
  br label %54

54:                                               ; preds = %50, %47
  %55 = phi i1 [ true, %47 ], [ %53, %50 ]
  %56 = xor i1 %55, true
  %57 = xor i1 %56, true
  %58 = zext i1 %57 to i32
  %59 = sext i32 %58 to i64
  %60 = call i64 @llvm.expect.i64(i64 %59, i64 1)
  %61 = icmp ne i64 %60, 0
  br i1 %61, label %62, label %95

62:                                               ; preds = %54
  %63 = load i32, ptr %4, align 4, !tbaa !8
  %64 = zext i32 %63 to i64
  %65 = getelementptr inbounds nuw [26 x ptr], ptr @H5O_msg_class_g, i64 0, i64 %64
  %66 = load ptr, ptr %65, align 8, !tbaa !23
  store ptr %66, ptr %7, align 8, !tbaa !23
  %67 = load ptr, ptr %7, align 8, !tbaa !23
  %68 = getelementptr inbounds nuw %struct.H5O_msg_class_t, ptr %67, i32 0, i32 6
  %69 = load ptr, ptr %68, align 8, !tbaa !51
  %70 = load ptr, ptr %5, align 8, !tbaa !10
  %71 = load ptr, ptr %6, align 8, !tbaa !10
  %72 = call ptr %69(ptr noundef %70, ptr noundef %71)
  store ptr %72, ptr %8, align 8, !tbaa !10
  %73 = icmp eq ptr null, %72
  br i1 %73, label %74, label %93

74:                                               ; preds = %62
  br label %75

75:                                               ; preds = %74
  br label %76

76:                                               ; preds = %75
  br label %77

77:                                               ; preds = %76
  %78 = load i64, ptr @H5E_OHDR_g, align 8, !tbaa !17
  %79 = load i64, ptr @H5E_CANTINIT_g, align 8, !tbaa !17
  %80 = call i32 (ptr, ptr, i32, i64, i64, ptr, ...) @H5E_printf_stack(ptr noundef @.str, ptr noundef @__func__.H5O_msg_copy, i32 noundef 676, i64 noundef %78, i64 noundef %79, ptr noundef @.str.21)
  br label %81

81:                                               ; preds = %77
  br label %82

82:                                               ; preds = %81
  store i8 1, ptr %9, align 1, !tbaa !13
  %83 = load i8, ptr %9, align 1, !tbaa !13, !range !15, !noundef !16
  %84 = trunc i8 %83 to i1
  %85 = zext i1 %84 to i8
  store i8 %85, ptr %9, align 1, !tbaa !13
  br label %86

86:                                               ; preds = %82
  br label %87

87:                                               ; preds = %86
  br label %88

88:                                               ; preds = %87
  store ptr null, ptr %8, align 8, !tbaa !10
  br label %94

89:                                               ; No predecessors!
  br label %90

90:                                               ; preds = %89
  br label %91

91:                                               ; preds = %90
  br label %92

92:                                               ; preds = %91
  br label %93

93:                                               ; preds = %92, %62
  br label %94

94:                                               ; preds = %93, %88, %41
  br label %95

95:                                               ; preds = %94, %54
  %96 = load ptr, ptr %8, align 8, !tbaa !10
  call void @llvm.lifetime.end.p0(i64 1, ptr %9) #5
  call void @llvm.lifetime.end.p0(i64 8, ptr %8) #5
  call void @llvm.lifetime.end.p0(i64 8, ptr %7) #5
  ret ptr %96
}