; Function Attrs: nounwind uwtable
define ptr @H5O_msg_copy(i32 noundef %0, ptr noundef %1, ptr noundef %2) local_unnamed_addr #0 {
  %4 = load i8, ptr @H5O_init_g, align 1, !tbaa !3, !range !7, !noundef !8
  %5 = trunc nuw i8 %4 to i1
  %6 = load i8, ptr @H5_libterm_g, align 1, !range !7
  %7 = trunc nuw i8 %6 to i1
  %8 = select i1 %5, i1 true, i1 %7
  br i1 %8, label %16, label %9, !prof !9

9:                                                ; preds = %3
  store i8 1, ptr @H5O_init_g, align 1, !tbaa !3
  %10 = tail call i32 @H5O__init_package() #7
  %11 = icmp slt i32 %10, 0
  br i1 %11, label %12, label %._crit_edge

._crit_edge:                                      ; preds = %9
  %.pre = load i8, ptr @H5O_init_g, align 1, !tbaa !3, !range !7
  %.pre7 = load i8, ptr @H5_libterm_g, align 1, !range !7
  %.pre8 = trunc nuw i8 %.pre to i1
  %.pre9 = trunc nuw i8 %.pre7 to i1
  br label %16

12:                                               ; preds = %9
  store i8 0, ptr @H5O_init_g, align 1, !tbaa !3
  %13 = load i64, ptr @H5E_FUNC_g, align 8, !tbaa !10
  %14 = load i64, ptr @H5E_CANTINIT_g, align 8, !tbaa !10
  %15 = tail call i32 (ptr, ptr, i32, i64, i64, ptr, ...) @H5E_printf_stack(ptr noundef nonnull @.str, ptr noundef nonnull @__func__.H5O_msg_copy, i32 noundef 666, i64 noundef %13, i64 noundef %14, ptr noundef nonnull @.str.1) #7
  br label %31

16:                                               ; preds = %._crit_edge, %3
  %.pre-phi10 = phi i1 [ %.pre9, %._crit_edge ], [ %7, %3 ]
  %.pre-phi = phi i1 [ %.pre8, %._crit_edge ], [ %5, %3 ]
  %17 = xor i1 %.pre-phi10, true
  %18 = select i1 %.pre-phi, i1 true, i1 %17
  br i1 %18, label %19, label %31, !prof !9

19:                                               ; preds = %16
  %20 = zext i32 %0 to i64
  %21 = getelementptr inbounds nuw [26 x ptr], ptr @H5O_msg_class_g, i64 0, i64 %20
  %22 = load ptr, ptr %21, align 8, !tbaa !16
  %23 = getelementptr inbounds nuw i8, ptr %22, i64 48
  %24 = load ptr, ptr %23, align 8, !tbaa !46
  %25 = tail call ptr %24(ptr noundef %1, ptr noundef %2) #7
  %26 = icmp eq ptr %25, null
  br i1 %26, label %27, label %31

27:                                               ; preds = %19
  %28 = load i64, ptr @H5E_OHDR_g, align 8, !tbaa !10
  %29 = load i64, ptr @H5E_CANTINIT_g, align 8, !tbaa !10
  %30 = tail call i32 (ptr, ptr, i32, i64, i64, ptr, ...) @H5E_printf_stack(ptr noundef nonnull @.str, ptr noundef nonnull @__func__.H5O_msg_copy, i32 noundef 676, i64 noundef %28, i64 noundef %29, ptr noundef nonnull @.str.21) #7
  br label %31

31:                                               ; preds = %12, %27, %19, %16
  %.0 = phi ptr [ null, %12 ], [ null, %27 ], [ %25, %19 ], [ null, %16 ]
  ret ptr %.0
}